; Function Attrs: mustprogress uwtable
define void @_ZN5draco22MeshEdgebreakerEncoder27ComputeNumberOfEncodedFacesEv(ptr nocapture noundef nonnull align 8 dereferenceable(136) %0) unnamed_addr #3 align 2 {
  %2 = getelementptr inbounds i8, ptr %0, i64 128
  %3 = load ptr, ptr %2, align 8
  %.not4 = icmp eq ptr %3, null
  br i1 %.not4, label %24, label %4

4:                                                ; preds = %1
  %5 = load ptr, ptr %3, align 8
  %6 = getelementptr inbounds i8, ptr %5, i64 64
  %7 = load ptr, ptr %6, align 8
  %8 = tail call noundef ptr %7(ptr noundef nonnull align 8 dereferenceable(8) %3)
  %.not = icmp eq ptr %8, null
  br i1 %.not, label %24, label %9

9:                                                ; preds = %4
  %10 = getelementptr inbounds i8, ptr %8, i64 8
  %11 = load ptr, ptr %10, align 8
  %12 = load ptr, ptr %8, align 8
  %13 = ptrtoint ptr %11 to i64
  %14 = ptrtoint ptr %12 to i64
  %15 = sub i64 %13, %14
  %16 = ashr exact i64 %15, 2
  %17 = udiv i64 %16, 3
  %18 = trunc i64 %17 to i32
  %19 = getelementptr inbounds i8, ptr %8, i64 76
  %20 = load i32, ptr %19, align 4
  %21 = sub nsw i32 %18, %20
  %22 = sext i32 %21 to i64
  %23 = getelementptr inbounds i8, ptr %0, i64 120
  store i64 %22, ptr %23, align 8
  br label %24

24:                                               ; preds = %4, %1, %9
  ret void
}